(lp0
ccopy_reg
_reconstructor
p1
(c__main__
Point
p2
c__builtin__
object
p3
Ntp4
Rp5
(lp6
I102
aI77
abag1
(g2
g3
Ntp7
Rp8
(lp9
I213
aI75
abag1
(g2
g3
Ntp10
Rp11
(lp12
I98
aI187
abag1
(g2
g3
Ntp13
Rp14
(lp15
I220
aI184
aba.